target datalayout = "e-m:e-p270:32:32-p271:32:32-p272:64:64-i64:64-i128:128-f80:128-n8:16:32:64-S128"
target triple = "x86_64-pc-linux-gnu"

; Function Attrs: nounwind uwtable
define dso_local i32 @safe_create_leading_directories(ptr noundef %0) #0 {
  %2 = alloca ptr, align 8
  store ptr %0, ptr %2, align 8, !tbaa !12
  %3 = load ptr, ptr %2, align 8, !tbaa !12
  %4 = call i32 @safe_create_leading_directories_1(ptr noundef %3, i32 noundef 1)
  ret i32 %4
}

; Function Attrs: nounwind uwtable
define dso_local i32 @safe_create_leading_directories_const(ptr noundef %0) #0 {
  %2 = alloca ptr, align 8
  %3 = alloca i32, align 4
  %4 = alloca ptr, align 8
  %5 = alloca i32, align 4
  store ptr %0, ptr %2, align 8, !tbaa !12
  call void @llvm.lifetime.start.p0(i64 4, ptr %3) #14
  call void @llvm.lifetime.start.p0(i64 8, ptr %4) #14
  %6 = load ptr, ptr %2, align 8, !tbaa !12
  %7 = call ptr @xstrdup(ptr noundef %6)
  store ptr %7, ptr %4, align 8, !tbaa !12
  call void @llvm.lifetime.start.p0(i64 4, ptr %5) #14
  %8 = load ptr, ptr %4, align 8, !tbaa !12
  %9 = call i32 @safe_create_leading_directories(ptr noundef %8)
  store i32 %9, ptr %5, align 4, !tbaa !43
  %10 = call ptr @__errno_location() #16
  %11 = load i32, ptr %10, align 4, !tbaa !43
  store i32 %11, ptr %3, align 4, !tbaa !43
  %12 = load ptr, ptr %4, align 8, !tbaa !12
  call void @free(ptr noundef %12) #14
  %13 = load i32, ptr %3, align 4, !tbaa !43
  %14 = call ptr @__errno_location() #16
  store i32 %13, ptr %14, align 4, !tbaa !43
  %15 = load i32, ptr %5, align 4, !tbaa !43
  call void @llvm.lifetime.end.p0(i64 4, ptr %5) #14
  call void @llvm.lifetime.end.p0(i64 8, ptr %4) #14
  call void @llvm.lifetime.end.p0(i64 4, ptr %3) #14
  ret i32 %15
}

; Function Attrs: nounwind uwtable
define dso_local i32 @odb_pack_keep(ptr noundef %0) #0 {
  %2 = alloca i32, align 4
  %3 = alloca ptr, align 8
  %4 = alloca i32, align 4
  %5 = alloca i32, align 4
  store ptr %0, ptr %3, align 8, !tbaa !12
  call void @llvm.lifetime.start.p0(i64 4, ptr %4) #14
  %6 = load ptr, ptr %3, align 8, !tbaa !12
  %7 = call i32 (ptr, i32, ...) @open64(ptr noundef %6, i32 noundef 194, i32 noundef 384)
  store i32 %7, ptr %4, align 4, !tbaa !43
  %8 = load i32, ptr %4, align 4, !tbaa !43
  %9 = icmp sle i32 0, %8
  br i1 %9, label %10, label %12

10:                                               ; preds = %1
  %11 = load i32, ptr %4, align 4, !tbaa !43
  store i32 %11, ptr %2, align 4
  store i32 1, ptr %5, align 4
  br label %17

12:                                               ; preds = %1
  %13 = load ptr, ptr %3, align 8, !tbaa !12
  %14 = call i32 @safe_create_leading_directories_const(ptr noundef %13)
  %15 = load ptr, ptr %3, align 8, !tbaa !12
  %16 = call i32 (ptr, i32, ...) @open64(ptr noundef %15, i32 noundef 194, i32 noundef 384)
  store i32 %16, ptr %2, align 4
  store i32 1, ptr %5, align 4
  br label %17

17:                                               ; preds = %12, %10
  call void @llvm.lifetime.end.p0(i64 4, ptr %4) #14
  %18 = load i32, ptr %2, align 4
  ret i32 %18
}