; Function Attrs: nounwind uwtable
define dso_local noundef i32 @odb_pack_keep(ptr noundef %0) local_unnamed_addr #1 {
  %2 = tail call i32 (ptr, i32, ...) @open64(ptr noundef %0, i32 noundef 194, i32 noundef 384) #27
  %3 = icmp sgt i32 %2, -1
  br i1 %3, label %10, label %4

4:                                                ; preds = %1
  %5 = tail call ptr @xstrdup(ptr noundef %0) #27
  %6 = tail call fastcc range(i32 -4, 1) i32 @safe_create_leading_directories_1(ptr noundef %5, i32 noundef 1)
  %7 = tail call ptr @__errno_location() #29
  %8 = load i32, ptr %7, align 4, !tbaa !44
  tail call void @free(ptr noundef %5) #27
  store i32 %8, ptr %7, align 4, !tbaa !44
  %9 = tail call i32 (ptr, i32, ...) @open64(ptr noundef %0, i32 noundef 194, i32 noundef 384) #27
  br label %10

10:                                               ; preds = %1, %4
  %.0 = phi i32 [ %9, %4 ], [ %2, %1 ]
  ret i32 %.0
}